; Function Attrs: mustprogress nounwind uwtable
define hidden void @_ZN15G1CollectedHeap14run_batch_taskEP13G1BatchedTask(ptr nocapture noundef nonnull readonly align 8 dereferenceable(1488) %0, ptr noundef nonnull %1) local_unnamed_addr #0 align 2 {
  %3 = tail call noundef i32 @_ZNK13G1BatchedTask20num_workers_estimateEv(ptr noundef nonnull align 8 dereferenceable(64) %1) #23
  %4 = getelementptr inbounds i8, ptr %0, i64 128
  %5 = load ptr, ptr %4, align 8
  %6 = getelementptr inbounds i8, ptr %5, i64 32
  %7 = load i32, ptr %6, align 8
  %8 = tail call noundef i32 @llvm.umin.i32(i32 %3, i32 %7)
  %9 = tail call noundef i32 @llvm.umax.i32(i32 %8, i32 1)
  tail call void @_ZN13G1BatchedTask15set_max_workersEj(ptr noundef nonnull align 8 dereferenceable(64) %1, i32 noundef %9) #23
  %10 = load ptr, ptr %4, align 8
  tail call void @_ZN13WorkerThreads8run_taskEP10WorkerTaskj(ptr noundef nonnull align 8 dereferenceable(120) %10, ptr noundef nonnull %1, i32 noundef %9) #23
  ret void
}